; Function Attrs: mustprogress nounwind uwtable
define dso_local void @_ZN4node9inspector19InspectorIoDelegate14GetTargetTitleERKNSt7__cxx1112basic_stringIcSt11char_traitsIcESaIcEEE(ptr noalias sret(%"class.std::__cxx11::basic_string") align 8 %agg.result, ptr noundef nonnull align 8 dereferenceable(192) %this, ptr nocapture nonnull readnone align 8 %id) unnamed_addr #3 align 2 {
entry:
  %script_name_ = getelementptr inbounds i8, ptr %this, i64 96
  %call = tail call noundef zeroext i1 @_ZNKSt7__cxx1112basic_stringIcSt11char_traitsIcESaIcEE5emptyEv(ptr noundef nonnull align 8 dereferenceable(32) %script_name_) #18
  br i1 %call, label %cond.true, label %cond.false

cond.true:                                        ; preds = %entry
  tail call void @_ZN4node27GetHumanReadableProcessNameB5cxx11Ev(ptr sret(%"class.std::__cxx11::basic_string") align 8 %agg.result) #18
  br label %cond.end

cond.false:                                       ; preds = %entry
  tail call void @_ZNSt7__cxx1112basic_stringIcSt11char_traitsIcESaIcEEC1ERKS4_(ptr noundef nonnull align 8 dereferenceable(32) %agg.result, ptr noundef nonnull align 8 dereferenceable(32) %script_name_) #18
  br label %cond.end

cond.end:                                         ; preds = %cond.false, %cond.true
  ret void
}